target datalayout = "e-m:e-p270:32:32-p271:32:32-p272:64:64-i64:64-i128:128-f80:128-n8:16:32:64-S128"
target triple = "x86_64-unknown-linux-gnu"

%"class.icu_75::GenderInfo" = type <{ %"class.icu_75::UObject", i32, [4 x i8] }>
%"class.icu_75::UObject" = type { ptr }

; Function Attrs: mustprogress nounwind uwtable
define internal noundef signext i8 @_ZL9U_FAILURE10UErrorCode(i32 noundef %code) #0 {
entry:
  %code.addr = alloca i32, align 4
  store i32 %code, ptr %code.addr, align 4
  %0 = load i32, ptr %code.addr, align 4
  %cmp = icmp sgt i32 %0, 0
  %conv = zext i1 %cmp to i8
  ret i8 %conv
}

; Function Attrs: mustprogress uwtable
define noundef i32 @_ZNK6icu_7510GenderInfo13getListGenderEPK7UGenderiR10UErrorCode(ptr noundef nonnull align 8 dereferenceable(12) %this, ptr noundef %genders, i32 noundef %length, ptr noundef nonnull align 4 dereferenceable(4) %status) #1 align 2 {
entry:
  %retval = alloca i32, align 4
  %this.addr = alloca ptr, align 8
  %genders.addr = alloca ptr, align 8
  %length.addr = alloca i32, align 4
  %status.addr = alloca ptr, align 8
  %has_female = alloca i8, align 1
  %has_male = alloca i8, align 1
  %i = alloca i32, align 4
  %i21 = alloca i32, align 4
  store ptr %this, ptr %this.addr, align 8
  store ptr %genders, ptr %genders.addr, align 8
  store i32 %length, ptr %length.addr, align 4
  store ptr %status, ptr %status.addr, align 8
  %this1 = load ptr, ptr %this.addr, align 8
  %0 = load ptr, ptr %status.addr, align 8
  %1 = load i32, ptr %0, align 4
  %call = call noundef signext i8 @_ZL9U_FAILURE10UErrorCode(i32 noundef %1)
  %tobool = icmp ne i8 %call, 0
  br i1 %tobool, label %if.then, label %if.end

if.then:                                          ; preds = %entry
  store i32 2, ptr %retval, align 4
  br label %return

if.end:                                           ; preds = %entry
  %2 = load i32, ptr %length.addr, align 4
  %cmp = icmp eq i32 %2, 0
  br i1 %cmp, label %if.then2, label %if.end3

if.then2:                                         ; preds = %if.end
  store i32 2, ptr %retval, align 4
  br label %return

if.end3:                                          ; preds = %if.end
  %3 = load i32, ptr %length.addr, align 4
  %cmp4 = icmp eq i32 %3, 1
  br i1 %cmp4, label %if.then5, label %if.end6

if.then5:                                         ; preds = %if.end3
  %4 = load ptr, ptr %genders.addr, align 8
  %arrayidx = getelementptr inbounds i32, ptr %4, i64 0
  %5 = load i32, ptr %arrayidx, align 4
  store i32 %5, ptr %retval, align 4
  br label %return

if.end6:                                          ; preds = %if.end3
  store i8 0, ptr %has_female, align 1
  store i8 0, ptr %has_male, align 1
  %_style = getelementptr inbounds %"class.icu_75::GenderInfo", ptr %this1, i32 0, i32 1
  %6 = load i32, ptr %_style, align 8
  switch i32 %6, label %sw.default33 [
    i32 0, label %sw.bb
    i32 1, label %sw.bb7
    i32 2, label %sw.bb20
  ]

sw.bb:                                            ; preds = %if.end6
  store i32 2, ptr %retval, align 4
  br label %return

sw.bb7:                                           ; preds = %if.end6
  store i32 0, ptr %i, align 4
  br label %for.cond

for.cond:                                         ; preds = %for.inc, %sw.bb7
  %7 = load i32, ptr %i, align 4
  %8 = load i32, ptr %length.addr, align 4
  %cmp8 = icmp slt i32 %7, %8
  br i1 %cmp8, label %for.body, label %for.end

for.body:                                         ; preds = %for.cond
  %9 = load ptr, ptr %genders.addr, align 8
  %10 = load i32, ptr %i, align 4
  %idxprom = sext i32 %10 to i64
  %arrayidx9 = getelementptr inbounds i32, ptr %9, i64 %idxprom
  %11 = load i32, ptr %arrayidx9, align 4
  switch i32 %11, label %sw.default [
    i32 2, label %sw.bb10
    i32 1, label %sw.bb11
    i32 0, label %sw.bb15
  ]

sw.bb10:                                          ; preds = %for.body
  store i32 2, ptr %retval, align 4
  br label %return

sw.bb11:                                          ; preds = %for.body
  %12 = load i8, ptr %has_male, align 1
  %tobool12 = icmp ne i8 %12, 0
  br i1 %tobool12, label %if.then13, label %if.end14

if.then13:                                        ; preds = %sw.bb11
  store i32 2, ptr %retval, align 4
  br label %return

if.end14:                                         ; preds = %sw.bb11
  store i8 1, ptr %has_female, align 1
  br label %sw.epilog

sw.bb15:                                          ; preds = %for.body
  %13 = load i8, ptr %has_female, align 1
  %tobool16 = icmp ne i8 %13, 0
  br i1 %tobool16, label %if.then17, label %if.end18

if.then17:                                        ; preds = %sw.bb15
  store i32 2, ptr %retval, align 4
  br label %return

if.end18:                                         ; preds = %sw.bb15
  store i8 1, ptr %has_male, align 1
  br label %sw.epilog

sw.default:                                       ; preds = %for.body
  br label %sw.epilog

sw.epilog:                                        ; preds = %sw.default, %if.end18, %if.end14
  br label %for.inc

for.inc:                                          ; preds = %sw.epilog
  %14 = load i32, ptr %i, align 4
  %inc = add nsw i32 %14, 1
  store i32 %inc, ptr %i, align 4
  br label %for.cond, !llvm.loop !7

for.end:                                          ; preds = %for.cond
  %15 = load i8, ptr %has_male, align 1
  %tobool19 = icmp ne i8 %15, 0
  %cond = select i1 %tobool19, i32 0, i32 1
  store i32 %cond, ptr %retval, align 4
  br label %return

sw.bb20:                                          ; preds = %if.end6
  store i32 0, ptr %i21, align 4
  br label %for.cond22

for.cond22:                                       ; preds = %for.inc30, %sw.bb20
  %16 = load i32, ptr %i21, align 4
  %17 = load i32, ptr %length.addr, align 4
  %cmp23 = icmp slt i32 %16, %17
  br i1 %cmp23, label %for.body24, label %for.end32

for.body24:                                       ; preds = %for.cond22
  %18 = load ptr, ptr %genders.addr, align 8
  %19 = load i32, ptr %i21, align 4
  %idxprom25 = sext i32 %19 to i64
  %arrayidx26 = getelementptr inbounds i32, ptr %18, i64 %idxprom25
  %20 = load i32, ptr %arrayidx26, align 4
  %cmp27 = icmp ne i32 %20, 1
  br i1 %cmp27, label %if.then28, label %if.end29

if.then28:                                        ; preds = %for.body24
  store i32 0, ptr %retval, align 4
  br label %return

if.end29:                                         ; preds = %for.body24
  br label %for.inc30

for.inc30:                                        ; preds = %if.end29
  %21 = load i32, ptr %i21, align 4
  %inc31 = add nsw i32 %21, 1
  store i32 %inc31, ptr %i21, align 4
  br label %for.cond22, !llvm.loop !8

for.end32:                                        ; preds = %for.cond22
  store i32 1, ptr %retval, align 4
  br label %return

sw.default33:                                     ; preds = %if.end6
  store i32 2, ptr %retval, align 4
  br label %return

return:                                           ; preds = %sw.default33, %for.end32, %if.then28, %for.end, %if.then17, %if.then13, %sw.bb10, %sw.bb, %if.then5, %if.then2, %if.then
  %22 = load i32, ptr %retval, align 4
  ret i32 %22
}

; Function Attrs: mustprogress uwtable
define i32 @ugender_getListGender_75(ptr noundef %genderInfo, ptr noundef %genders, i32 noundef %size, ptr noundef %status) #1 {
entry:
  %genderInfo.addr = alloca ptr, align 8
  %genders.addr = alloca ptr, align 8
  %size.addr = alloca i32, align 4
  %status.addr = alloca ptr, align 8
  store ptr %genderInfo, ptr %genderInfo.addr, align 8
  store ptr %genders, ptr %genders.addr, align 8
  store i32 %size, ptr %size.addr, align 4
  store ptr %status, ptr %status.addr, align 8
  %0 = load ptr, ptr %genderInfo.addr, align 8
  %1 = load ptr, ptr %genders.addr, align 8
  %2 = load i32, ptr %size.addr, align 4
  %3 = load ptr, ptr %status.addr, align 8
  %call = call noundef i32 @_ZNK6icu_7510GenderInfo13getListGenderEPK7UGenderiR10UErrorCode(ptr noundef nonnull align 8 dereferenceable(12) %0, ptr noundef %1, i32 noundef %2, ptr noundef nonnull align 4 dereferenceable(4) %3)
  ret i32 %call
}