; Function Attrs: mustprogress nofree norecurse nosync nounwind willreturn memory(argmem: read) uwtable
define i32 @ugender_getListGender_75(ptr nocapture noundef readonly %genderInfo, ptr nocapture noundef readonly %genders, i32 noundef %size, ptr nocapture noundef readonly %status) local_unnamed_addr #9 {
entry:
  %0 = load i32, ptr %status, align 4
  %cmp.i.i = icmp slt i32 %0, 1
  br i1 %cmp.i.i, label %if.end.i, label %_ZNK6icu_7510GenderInfo13getListGenderEPK7UGenderiR10UErrorCode.exit

if.end.i:                                         ; preds = %entry
  switch i32 %size, label %if.end6.i [
    i32 0, label %_ZNK6icu_7510GenderInfo13getListGenderEPK7UGenderiR10UErrorCode.exit
    i32 1, label %if.then5.i
  ]

if.then5.i:                                       ; preds = %if.end.i
  %1 = load i32, ptr %genders, align 4
  br label %_ZNK6icu_7510GenderInfo13getListGenderEPK7UGenderiR10UErrorCode.exit

if.end6.i:                                        ; preds = %if.end.i
  %_style.i = getelementptr inbounds i8, ptr %genderInfo, i64 8
  %2 = load i32, ptr %_style.i, align 8
  switch i32 %2, label %_ZNK6icu_7510GenderInfo13getListGenderEPK7UGenderiR10UErrorCode.exit [
    i32 2, label %for.cond22.preheader.i
    i32 1, label %for.cond.preheader.i
  ]

for.cond.preheader.i:                             ; preds = %if.end6.i
  %cmp813.i = icmp sgt i32 %size, 0
  br i1 %cmp813.i, label %for.body.preheader.i, label %_ZNK6icu_7510GenderInfo13getListGenderEPK7UGenderiR10UErrorCode.exit

for.body.preheader.i:                             ; preds = %for.cond.preheader.i
  %wide.trip.count.i = zext nneg i32 %size to i64
  br label %for.body.i

for.cond22.preheader.i:                           ; preds = %if.end6.i
  %cmp2317.i = icmp sgt i32 %size, 0
  br i1 %cmp2317.i, label %for.body24.preheader.i, label %_ZNK6icu_7510GenderInfo13getListGenderEPK7UGenderiR10UErrorCode.exit

for.body24.preheader.i:                           ; preds = %for.cond22.preheader.i
  %wide.trip.count25.i = zext nneg i32 %size to i64
  br label %for.body24.i

for.body.i:                                       ; preds = %for.inc.i, %for.body.preheader.i
  %indvars.iv.i = phi i64 [ 0, %for.body.preheader.i ], [ %indvars.iv.next.i, %for.inc.i ]
  %has_male.015.i = phi i8 [ 0, %for.body.preheader.i ], [ %has_male.1.i, %for.inc.i ]
  %has_female.014.i = phi i8 [ 0, %for.body.preheader.i ], [ %has_female.1.i, %for.inc.i ]
  %arrayidx9.i = getelementptr inbounds i32, ptr %genders, i64 %indvars.iv.i
  %3 = load i32, ptr %arrayidx9.i, align 4
  switch i32 %3, label %for.inc.i [
    i32 2, label %_ZNK6icu_7510GenderInfo13getListGenderEPK7UGenderiR10UErrorCode.exit
    i32 1, label %sw.bb11.i
    i32 0, label %sw.bb15.i
  ]

sw.bb11.i:                                        ; preds = %for.body.i
  %tobool12.not.i = icmp eq i8 %has_male.015.i, 0
  br i1 %tobool12.not.i, label %for.inc.i, label %_ZNK6icu_7510GenderInfo13getListGenderEPK7UGenderiR10UErrorCode.exit

sw.bb15.i:                                        ; preds = %for.body.i
  %tobool16.not.i = icmp eq i8 %has_female.014.i, 0
  br i1 %tobool16.not.i, label %for.inc.i, label %_ZNK6icu_7510GenderInfo13getListGenderEPK7UGenderiR10UErrorCode.exit

for.inc.i:                                        ; preds = %sw.bb15.i, %sw.bb11.i, %for.body.i
  %has_female.1.i = phi i8 [ %has_female.014.i, %for.body.i ], [ 1, %sw.bb11.i ], [ 0, %sw.bb15.i ]
  %has_male.1.i = phi i8 [ %has_male.015.i, %for.body.i ], [ 0, %sw.bb11.i ], [ 1, %sw.bb15.i ]
  %indvars.iv.next.i = add nuw nsw i64 %indvars.iv.i, 1
  %exitcond.not.i = icmp eq i64 %indvars.iv.next.i, %wide.trip.count.i
  br i1 %exitcond.not.i, label %for.end.loopexit.i, label %for.body.i, !llvm.loop !7

for.end.loopexit.i:                               ; preds = %for.inc.i
  %4 = icmp eq i8 %has_male.1.i, 0
  %5 = zext i1 %4 to i32
  br label %_ZNK6icu_7510GenderInfo13getListGenderEPK7UGenderiR10UErrorCode.exit

for.cond22.i:                                     ; preds = %for.body24.i
  %indvars.iv.next23.i = add nuw nsw i64 %indvars.iv22.i, 1
  %exitcond26.not.i = icmp eq i64 %indvars.iv.next23.i, %wide.trip.count25.i
  br i1 %exitcond26.not.i, label %_ZNK6icu_7510GenderInfo13getListGenderEPK7UGenderiR10UErrorCode.exit, label %for.body24.i, !llvm.loop !8

for.body24.i:                                     ; preds = %for.cond22.i, %for.body24.preheader.i
  %indvars.iv22.i = phi i64 [ 0, %for.body24.preheader.i ], [ %indvars.iv.next23.i, %for.cond22.i ]
  %arrayidx26.i = getelementptr inbounds i32, ptr %genders, i64 %indvars.iv22.i
  %6 = load i32, ptr %arrayidx26.i, align 4
  %cmp27.not.i = icmp eq i32 %6, 1
  br i1 %cmp27.not.i, label %for.cond22.i, label %_ZNK6icu_7510GenderInfo13getListGenderEPK7UGenderiR10UErrorCode.exit

_ZNK6icu_7510GenderInfo13getListGenderEPK7UGenderiR10UErrorCode.exit: ; preds = %for.body.i, %sw.bb11.i, %sw.bb15.i, %for.cond22.i, %for.body24.i, %entry, %if.end.i, %if.then5.i, %if.end6.i, %for.cond.preheader.i, %for.cond22.preheader.i, %for.end.loopexit.i
  %retval.0.i = phi i32 [ %1, %if.then5.i ], [ 2, %entry ], [ 2, %if.end.i ], [ 2, %if.end6.i ], [ 1, %for.cond22.preheader.i ], [ 1, %for.cond.preheader.i ], [ %5, %for.end.loopexit.i ], [ 1, %for.cond22.i ], [ 0, %for.body24.i ], [ %3, %for.body.i ], [ 2, %sw.bb11.i ], [ 2, %sw.bb15.i ]
  ret i32 %retval.0.i
}